; Function Attrs: mustprogress nofree norecurse nosync nounwind willreturn memory(readwrite, inaccessiblemem: none) uwtable
define hidden void @_ZN6BitMap23clear_range_within_wordEmm(ptr nocapture noundef nonnull readonly align 8 dereferenceable(16) %0, i64 noundef %1, i64 noundef %2) local_unnamed_addr #2 align 2 {
  %.not = icmp eq i64 %1, %2
  br i1 %.not, label %14, label %4

4:                                                ; preds = %3
  %5 = and i64 %1, 63
  %notmask.i = shl nsw i64 -1, %5
  %6 = xor i64 %notmask.i, -1
  %7 = and i64 %2, 63
  %.not.i = icmp eq i64 %7, 0
  %.neg.i = shl nsw i64 -1, %7
  %8 = select i1 %.not.i, i64 0, i64 %.neg.i
  %.0.i = or i64 %8, %6
  %9 = load ptr, ptr %0, align 8
  %10 = lshr i64 %1, 6
  %11 = getelementptr inbounds i64, ptr %9, i64 %10
  %12 = load i64, ptr %11, align 8
  %13 = and i64 %12, %.0.i
  store i64 %13, ptr %11, align 8
  br label %14

14:                                               ; preds = %4, %3
  ret void
}